(lp0
(dp1
S'Three'
p2
S'QlpoOTFBWSZTWZqNZH4AAACDgEgAIgZIgCAAMQZMQQND0ia04H4u5IpwoSE1Gsj8'
p3
sS'Six'
p4
S'2015-08-22'
p5
sS'Two'
p6
S'SampleUsr'
p7
sS'ONE'
p8
S'Sample_Account'
p9
sS'Four'
p10
VDescription\u000a
p11
sS'Five'
p12
S'Yes'
p13
sa(dp14
S'Three'
p15
S'QlpoOTFBWSZTWYOGS0oAAAEXgEAAAgBAACYBnIAgACIGgGhA0DQGSEkdRztJbxdyRThQkIOGS0o='
p16
sS'Six'
p17
S'2016-08-14'
p18
sS'Two'
p19
S'Enter a UserName'
p20
sS'ONE'
p21
S'Enter_a_Name_(ID)'
p22
sS'Four'
p23
VDescriptionDescription\u000a
p24
sS'Five'
p25
S''
p26
sa(dp27
S'Two'
p28
S'Enter a UserName'
p29
sS'Six'
p30
S'2015-11-18'
p31
sS'Three'
p32
S'QlpoOTFBWSZTWYOGS0oAAAEXgEAAAgBAACYBnIAgACIGgGhA0DQGSEkdRztJbxdyRThQkIOGS0o='
p33
sS'ONE'
p34
S'Enter_a_Name_(ID)'
p35
sS'Four'
p36
VDescription\u000a
p37
sS'Five'
p38
S'Yes'
p39
sa(dp40
S'Six'
p41
S'2016-08-14'
p42
sS'Three'
p43
S'QlpoOTFBWSZTWQi4r/AAAAJAgABAAEAgACEAggsXckU4UJAIuK/w'
p44
sS'Two'
p45
S'Ryan.Ruscett@gmail.com'
p46
sS'Four'
p47
Vwww.facebook.com\u000a
p48
sS'Five'
p49
S'No'
p50
sS'ONE'
p51
S'Facebook_Account'
p52
sa.